target datalayout = "e-m:e-p270:32:32-p271:32:32-p272:64:64-i64:64-i128:128-f80:128-n8:16:32:64-S128"
target triple = "x86_64-pc-linux-gnu"

%struct.WebPPicture = type { i32, i32, i32, i32, ptr, ptr, ptr, i32, i32, ptr, i32, [2 x i32], ptr, i32, [3 x i32], ptr, ptr, i32, ptr, ptr, i32, ptr, ptr, [3 x i32], ptr, ptr, [8 x i32], ptr, ptr, [2 x ptr] }

; Function Attrs: nounwind uwtable
define dso_local i32 @WebPImportGray(ptr noundef %0, ptr noundef %1) #0 {
  %3 = alloca i32, align 4
  %4 = alloca ptr, align 8
  %5 = alloca ptr, align 8
  %6 = alloca i32, align 4
  %7 = alloca i32, align 4
  %8 = alloca i32, align 4
  store ptr %0, ptr %4, align 8
  store ptr %1, ptr %5, align 8
  %9 = load ptr, ptr %5, align 8
  %10 = icmp eq ptr %9, null
  br i1 %10, label %14, label %11

11:                                               ; preds = %2
  %12 = load ptr, ptr %4, align 8
  %13 = icmp eq ptr %12, null
  br i1 %13, label %14, label %15

14:                                               ; preds = %11, %2
  store i32 0, ptr %3, align 4
  br label %88

15:                                               ; preds = %11
  %16 = load ptr, ptr %5, align 8
  %17 = getelementptr inbounds %struct.WebPPicture, ptr %16, i32 0, i32 1
  store i32 0, ptr %17, align 4
  %18 = load ptr, ptr %5, align 8
  %19 = call i32 @WebPPictureAlloc(ptr noundef %18)
  %20 = icmp ne i32 %19, 0
  br i1 %20, label %22, label %21

21:                                               ; preds = %15
  store i32 0, ptr %3, align 4
  br label %88

22:                                               ; preds = %15
  %23 = load ptr, ptr %5, align 8
  %24 = getelementptr inbounds %struct.WebPPicture, ptr %23, i32 0, i32 2
  %25 = load i32, ptr %24, align 8
  store i32 %25, ptr %7, align 4
  %26 = load i32, ptr %7, align 4
  %27 = add nsw i32 %26, 1
  %28 = ashr i32 %27, 1
  store i32 %28, ptr %8, align 4
  store i32 0, ptr %6, align 4
  br label %29

29:                                               ; preds = %84, %22
  %30 = load i32, ptr %6, align 4
  %31 = load ptr, ptr %5, align 8
  %32 = getelementptr inbounds %struct.WebPPicture, ptr %31, i32 0, i32 3
  %33 = load i32, ptr %32, align 4
  %34 = icmp slt i32 %30, %33
  br i1 %34, label %35, label %87

35:                                               ; preds = %29
  %36 = load ptr, ptr %5, align 8
  %37 = getelementptr inbounds %struct.WebPPicture, ptr %36, i32 0, i32 4
  %38 = load ptr, ptr %37, align 8
  %39 = load i32, ptr %6, align 4
  %40 = load ptr, ptr %5, align 8
  %41 = getelementptr inbounds %struct.WebPPicture, ptr %40, i32 0, i32 7
  %42 = load i32, ptr %41, align 8
  %43 = mul nsw i32 %39, %42
  %44 = sext i32 %43 to i64
  %45 = getelementptr inbounds i8, ptr %38, i64 %44
  %46 = load ptr, ptr %4, align 8
  %47 = load i32, ptr %7, align 4
  %48 = sext i32 %47 to i64
  call void @llvm.memcpy.p0.p0.i64(ptr align 1 %45, ptr align 1 %46, i64 %48, i1 false)
  %49 = load i32, ptr %7, align 4
  %50 = load ptr, ptr %4, align 8
  %51 = sext i32 %49 to i64
  %52 = getelementptr inbounds i8, ptr %50, i64 %51
  store ptr %52, ptr %4, align 8
  %53 = load i32, ptr %6, align 4
  %54 = and i32 %53, 1
  %55 = icmp eq i32 %54, 0
  br i1 %55, label %56, label %83

56:                                               ; preds = %35
  %57 = load ptr, ptr %5, align 8
  %58 = getelementptr inbounds %struct.WebPPicture, ptr %57, i32 0, i32 5
  %59 = load ptr, ptr %58, align 8
  %60 = load i32, ptr %6, align 4
  %61 = ashr i32 %60, 1
  %62 = load ptr, ptr %5, align 8
  %63 = getelementptr inbounds %struct.WebPPicture, ptr %62, i32 0, i32 8
  %64 = load i32, ptr %63, align 4
  %65 = mul nsw i32 %61, %64
  %66 = sext i32 %65 to i64
  %67 = getelementptr inbounds i8, ptr %59, i64 %66
  %68 = load i32, ptr %8, align 4
  %69 = sext i32 %68 to i64
  call void @llvm.memset.p0.i64(ptr align 1 %67, i8 -128, i64 %69, i1 false)
  %70 = load ptr, ptr %5, align 8
  %71 = getelementptr inbounds %struct.WebPPicture, ptr %70, i32 0, i32 6
  %72 = load ptr, ptr %71, align 8
  %73 = load i32, ptr %6, align 4
  %74 = ashr i32 %73, 1
  %75 = load ptr, ptr %5, align 8
  %76 = getelementptr inbounds %struct.WebPPicture, ptr %75, i32 0, i32 8
  %77 = load i32, ptr %76, align 4
  %78 = mul nsw i32 %74, %77
  %79 = sext i32 %78 to i64
  %80 = getelementptr inbounds i8, ptr %72, i64 %79
  %81 = load i32, ptr %8, align 4
  %82 = sext i32 %81 to i64
  call void @llvm.memset.p0.i64(ptr align 1 %80, i8 -128, i64 %82, i1 false)
  br label %83

83:                                               ; preds = %56, %35
  br label %84

84:                                               ; preds = %83
  %85 = load i32, ptr %6, align 4
  %86 = add nsw i32 %85, 1
  store i32 %86, ptr %6, align 4
  br label %29, !llvm.loop !5

87:                                               ; preds = %29
  store i32 1, ptr %3, align 4
  br label %88

88:                                               ; preds = %87, %21, %14
  %89 = load i32, ptr %3, align 4
  ret i32 %89
}