; Function Attrs: nounwind uwtable
define dso_local range(i32 0, 2) i32 @WebPImportGray(ptr noundef readonly %0, ptr noundef %1) local_unnamed_addr #1 {
  %3 = icmp eq ptr %1, null
  %4 = icmp eq ptr %0, null
  %or.cond = or i1 %4, %3
  br i1 %or.cond, label %.loopexit, label %5

5:                                                ; preds = %2
  %6 = getelementptr inbounds nuw i8, ptr %1, i64 4
  store i32 0, ptr %6, align 4
  %7 = tail call i32 @WebPPictureAlloc(ptr noundef nonnull %1) #6
  %.not = icmp eq i32 %7, 0
  br i1 %.not, label %.loopexit, label %8

8:                                                ; preds = %5
  %9 = getelementptr inbounds nuw i8, ptr %1, i64 12
  %10 = load i32, ptr %9, align 4
  %11 = icmp sgt i32 %10, 0
  br i1 %11, label %.lr.ph, label %.loopexit

.lr.ph:                                           ; preds = %8
  %12 = getelementptr inbounds nuw i8, ptr %1, i64 8
  %13 = load i32, ptr %12, align 8
  %14 = add nsw i32 %13, 1
  %15 = ashr i32 %14, 1
  %16 = getelementptr inbounds nuw i8, ptr %1, i64 16
  %17 = getelementptr inbounds nuw i8, ptr %1, i64 40
  %18 = sext i32 %13 to i64
  %19 = getelementptr inbounds nuw i8, ptr %1, i64 24
  %20 = getelementptr inbounds nuw i8, ptr %1, i64 44
  %21 = sext i32 %15 to i64
  %22 = getelementptr inbounds nuw i8, ptr %1, i64 32
  br label %23

23:                                               ; preds = %.lr.ph, %44
  %.02631 = phi ptr [ %0, %.lr.ph ], [ %29, %44 ]
  %.02730 = phi i32 [ 0, %.lr.ph ], [ %45, %44 ]
  %24 = load ptr, ptr %16, align 8
  %25 = load i32, ptr %17, align 8
  %26 = mul nsw i32 %25, %.02730
  %27 = sext i32 %26 to i64
  %28 = getelementptr inbounds i8, ptr %24, i64 %27
  tail call void @llvm.memcpy.p0.p0.i64(ptr align 1 %28, ptr align 1 %.02631, i64 %18, i1 false)
  %29 = getelementptr inbounds i8, ptr %.02631, i64 %18
  %30 = and i32 %.02730, 1
  %31 = icmp eq i32 %30, 0
  br i1 %31, label %32, label %44

32:                                               ; preds = %23
  %33 = load ptr, ptr %19, align 8
  %34 = lshr exact i32 %.02730, 1
  %35 = load i32, ptr %20, align 4
  %36 = mul nsw i32 %35, %34
  %37 = sext i32 %36 to i64
  %38 = getelementptr inbounds i8, ptr %33, i64 %37
  tail call void @llvm.memset.p0.i64(ptr align 1 %38, i8 -128, i64 %21, i1 false)
  %39 = load ptr, ptr %22, align 8
  %40 = load i32, ptr %20, align 4
  %41 = mul nsw i32 %40, %34
  %42 = sext i32 %41 to i64
  %43 = getelementptr inbounds i8, ptr %39, i64 %42
  tail call void @llvm.memset.p0.i64(ptr align 1 %43, i8 -128, i64 %21, i1 false)
  br label %44

44:                                               ; preds = %23, %32
  %45 = add nuw nsw i32 %.02730, 1
  %46 = load i32, ptr %9, align 4
  %47 = icmp slt i32 %45, %46
  br i1 %47, label %23, label %.loopexit, !llvm.loop !5

.loopexit:                                        ; preds = %44, %8, %5, %2
  %.0 = phi i32 [ 0, %2 ], [ 0, %5 ], [ 1, %8 ], [ 1, %44 ]
  ret i32 %.0
}